target datalayout = "e-m:e-p270:32:32-p271:32:32-p272:64:64-i64:64-i128:128-f80:128-n8:16:32:64-S128"
target triple = "x86_64-pc-linux-gnu"

%"class.absl::ScopedMockLog" = type <{ %"class.testing::internal::FunctionMocker", %"class.testing::internal::FunctionMocker.30", %"class.testing::internal::FunctionMocker.31", %"class.absl::ScopedMockLog::ForwardingSink", i8, %"struct.std::atomic", [6 x i8] }>
%"class.testing::internal::FunctionMocker" = type { %"class.testing::internal::UntypedFunctionMockerBase" }
%"class.testing::internal::UntypedFunctionMockerBase" = type { ptr, ptr, ptr, %"class.std::vector", %"class.std::vector.25" }
%"class.std::vector" = type { %"struct.std::_Vector_base" }
%"struct.std::_Vector_base" = type { %"struct.std::_Vector_base<const void *, std::allocator<const void *>>::_Vector_impl" }
%"struct.std::_Vector_base<const void *, std::allocator<const void *>>::_Vector_impl" = type { %"struct.std::_Vector_base<const void *, std::allocator<const void *>>::_Vector_impl_data" }
%"struct.std::_Vector_base<const void *, std::allocator<const void *>>::_Vector_impl_data" = type { ptr, ptr, ptr }
%"class.std::vector.25" = type { %"struct.std::_Vector_base.26" }
%"struct.std::_Vector_base.26" = type { %"struct.std::_Vector_base<std::shared_ptr<testing::internal::ExpectationBase>, std::allocator<std::shared_ptr<testing::internal::ExpectationBase>>>::_Vector_impl" }
%"struct.std::_Vector_base<std::shared_ptr<testing::internal::ExpectationBase>, std::allocator<std::shared_ptr<testing::internal::ExpectationBase>>>::_Vector_impl" = type { %"struct.std::_Vector_base<std::shared_ptr<testing::internal::ExpectationBase>, std::allocator<std::shared_ptr<testing::internal::ExpectationBase>>>::_Vector_impl_data" }
%"struct.std::_Vector_base<std::shared_ptr<testing::internal::ExpectationBase>, std::allocator<std::shared_ptr<testing::internal::ExpectationBase>>>::_Vector_impl_data" = type { ptr, ptr, ptr }
%"class.testing::internal::FunctionMocker.30" = type { %"class.testing::internal::UntypedFunctionMockerBase" }
%"class.testing::internal::FunctionMocker.31" = type { %"class.testing::internal::UntypedFunctionMockerBase" }
%"class.absl::ScopedMockLog::ForwardingSink" = type { %"class.absl::LogSink", ptr }
%"class.absl::LogSink" = type { ptr }
%"struct.std::atomic" = type { %"struct.std::__atomic_base" }
%"struct.std::__atomic_base" = type { i8 }
%"class.testing::internal::WithoutMatchers" = type { i8 }
%"class.testing::Cardinality" = type { %"class.std::shared_ptr" }
%"class.std::shared_ptr" = type { %"class.std::__shared_ptr" }
%"class.std::__shared_ptr" = type { ptr, %"class.std::__shared_count" }
%"class.std::__shared_count" = type { ptr }
%"class.testing::internal::MockSpec.126" = type <{ ptr, [8 x i8] }>
%"class.std::tuple.133" = type { i8 }

@.str.4 = private unnamed_addr constant [125 x i8] c"generated/home/dtcxzyw/WorkSpace/Projects/compilers/llvm-opt-benchmark/bench/abseil-cpp/abseil-cpp/absl/log/log_sink_test.cc\00", align 1
@.str.51 = private unnamed_addr constant [10 x i8] c"test_sink\00", align 1
@.str.100 = private unnamed_addr constant [8 x i8] c"Flush()\00", align 1

; Function Attrs: mustprogress nounwind uwtable
define linkonce_odr dso_local void @_ZN7testing8internal8MockSpecIFvvEEC2EPNS0_14FunctionMockerIS2_EERKSt5tupleIJEE(ptr noundef nonnull align 8 dereferenceable(9) %0, ptr noundef %1, ptr noundef nonnull align 1 dereferenceable(1) %2) unnamed_addr #8 comdat align 2 {
  %4 = alloca ptr, align 8
  %5 = alloca ptr, align 8
  %6 = alloca ptr, align 8
  store ptr %0, ptr %4, align 8, !tbaa !509
  store ptr %1, ptr %5, align 8, !tbaa !517
  store ptr %2, ptr %6, align 8, !tbaa !518
  %7 = load ptr, ptr %4, align 8
  %8 = getelementptr inbounds nuw %"class.testing::internal::MockSpec.126", ptr %7, i32 0, i32 0
  %9 = load ptr, ptr %5, align 8, !tbaa !517
  store ptr %9, ptr %8, align 8, !tbaa !511
  ret void
}

; Function Attrs: mustprogress nounwind uwtable
define linkonce_odr dso_local void @_ZSt10make_tupleIJEESt5tupleIJDpNSt25__strip_reference_wrapperINSt5decayIT_E4typeEE6__typeEEEDpOS3_() #8 comdat {
  ret void
}

; Function Attrs: mustprogress uwtable
define linkonce_odr dso_local noundef nonnull align 8 dereferenceable(336) ptr @_ZN7testing8internal16TypedExpectationIFvvEE5TimesERKNS_11CardinalityE(ptr noundef nonnull align 8 dereferenceable(336) %0, ptr noundef nonnull align 8 dereferenceable(16) %1) #9 comdat align 2 {
  %3 = alloca ptr, align 8
  %4 = alloca ptr, align 8
  store ptr %0, ptr %3, align 8, !tbaa !515
  store ptr %1, ptr %4, align 8, !tbaa !369
  %5 = load ptr, ptr %3, align 8
  %6 = load ptr, ptr %4, align 8, !tbaa !369
  call void @_ZN7testing8internal15ExpectationBase12UntypedTimesERKNS_11CardinalityE(ptr noundef nonnull align 8 dereferenceable(264) %5, ptr noundef nonnull align 8 dereferenceable(16) %6)
  ret ptr %5
}

; Function Attrs: mustprogress uwtable
define linkonce_odr dso_local ptr @_ZN7testing8internal14FunctionMockerIFvvEE4WithEv(ptr noundef nonnull align 8 dereferenceable(72) %0) #9 comdat align 2 {
  %2 = alloca %"class.testing::internal::MockSpec.126", align 8
  %3 = alloca ptr, align 8
  %4 = alloca %"class.std::tuple.133", align 1
  store ptr %0, ptr %3, align 8, !tbaa !517
  %5 = load ptr, ptr %3, align 8
  call void @llvm.lifetime.start.p0(i64 1, ptr %4) #3
  call void @_ZSt10make_tupleIJEESt5tupleIJDpNSt25__strip_reference_wrapperINSt5decayIT_E4typeEE6__typeEEEDpOS3_()
  call void @_ZN7testing8internal8MockSpecIFvvEEC2EPNS0_14FunctionMockerIS2_EERKSt5tupleIJEE(ptr noundef nonnull align 8 dereferenceable(9) %2, ptr noundef %5, ptr noundef nonnull align 1 dereferenceable(1) %4)
  call void @llvm.lifetime.end.p0(i64 1, ptr %4) #3
  %6 = getelementptr inbounds nuw %"class.testing::internal::MockSpec.126", ptr %2, i32 0, i32 0
  %7 = load ptr, ptr %6, align 8
  ret ptr %7
}

; Function Attrs: inlinehint mustprogress uwtable
define linkonce_odr dso_local void @_ZN4absl13FlushLogSinksEv() #4 comdat {
  call void @_ZN4absl12log_internal13FlushLogSinksEv()
  ret void
}

; Function Attrs: mustprogress uwtable
define linkonce_odr dso_local noundef nonnull align 8 dereferenceable(336) ptr @_ZN7testing8internal16TypedExpectationIFvvEE5TimesEi(ptr noundef nonnull align 8 dereferenceable(336) %0, i32 noundef %1) #9 comdat align 2 personality ptr @__gxx_personality_v0 {
  %3 = alloca ptr, align 8
  %4 = alloca i32, align 4
  %5 = alloca %"class.testing::Cardinality", align 8
  %6 = alloca ptr, align 8
  %7 = alloca i32, align 4
  store ptr %0, ptr %3, align 8, !tbaa !515
  store i32 %1, ptr %4, align 4, !tbaa !23
  %8 = load ptr, ptr %3, align 8
  call void @llvm.lifetime.start.p0(i64 16, ptr %5) #3
  %9 = load i32, ptr %4, align 4, !tbaa !23
  call void @_ZN7testing7ExactlyEi(ptr dead_on_unwind writable sret(%"class.testing::Cardinality") align 8 %5, i32 noundef %9)
  %10 = invoke noundef nonnull align 8 dereferenceable(336) ptr @_ZN7testing8internal16TypedExpectationIFvvEE5TimesERKNS_11CardinalityE(ptr noundef nonnull align 8 dereferenceable(336) %8, ptr noundef nonnull align 8 dereferenceable(16) %5)
          to label %11 unwind label %12

11:                                               ; preds = %2
  call void @_ZN7testing11CardinalityD2Ev(ptr noundef nonnull align 8 dereferenceable(16) %5) #3
  call void @llvm.lifetime.end.p0(i64 16, ptr %5) #3
  ret ptr %10

12:                                               ; preds = %2
  %13 = landingpad { ptr, i32 }
          cleanup
  %14 = extractvalue { ptr, i32 } %13, 0
  store ptr %14, ptr %6, align 8
  %15 = extractvalue { ptr, i32 } %13, 1
  store i32 %15, ptr %7, align 4
  call void @_ZN7testing11CardinalityD2Ev(ptr noundef nonnull align 8 dereferenceable(16) %5) #3
  call void @llvm.lifetime.end.p0(i64 16, ptr %5) #3
  br label %16

16:                                               ; preds = %12
  %17 = load ptr, ptr %6, align 8
  %18 = load i32, ptr %7, align 4
  %19 = insertvalue { ptr, i32 } poison, ptr %17, 0
  %20 = insertvalue { ptr, i32 } %19, i32 %18, 1
  resume { ptr, i32 } %20
}

; Function Attrs: mustprogress nounwind uwtable
define linkonce_odr dso_local noundef nonnull align 8 dereferenceable(9) ptr @_ZN7testing8internal8MockSpecIFvvEEclERKNS0_15WithoutMatchersEPv(ptr noundef nonnull align 8 dereferenceable(9) %0, ptr noundef nonnull align 1 dereferenceable(1) %1, ptr noundef %2) #8 comdat align 2 {
  %4 = alloca ptr, align 8
  %5 = alloca ptr, align 8
  %6 = alloca ptr, align 8
  store ptr %0, ptr %4, align 8, !tbaa !509
  store ptr %1, ptr %5, align 8, !tbaa !98
  store ptr %2, ptr %6, align 8, !tbaa !30
  %7 = load ptr, ptr %4, align 8
  ret ptr %7
}

; Function Attrs: mustprogress uwtable
define linkonce_odr dso_local ptr @_ZN4absl13ScopedMockLog11gmock_FlushEv(ptr noundef nonnull align 8 dereferenceable(240) %0) #9 comdat align 2 {
  %2 = alloca %"class.testing::internal::MockSpec.126", align 8
  %3 = alloca ptr, align 8
  store ptr %0, ptr %3, align 8, !tbaa !88
  %4 = load ptr, ptr %3, align 8
  %5 = getelementptr inbounds nuw %"class.absl::ScopedMockLog", ptr %4, i32 0, i32 2
  call void @_ZN7testing8internal25UntypedFunctionMockerBase13RegisterOwnerEPKv(ptr noundef nonnull align 8 dereferenceable(72) %5, ptr noundef %4)
  %6 = getelementptr inbounds nuw %"class.absl::ScopedMockLog", ptr %4, i32 0, i32 2
  %7 = call ptr @_ZN7testing8internal14FunctionMockerIFvvEE4WithEv(ptr noundef nonnull align 8 dereferenceable(72) %6)
  %8 = getelementptr inbounds nuw %"class.testing::internal::MockSpec.126", ptr %2, i32 0, i32 0
  store ptr %7, ptr %8, align 8
  %9 = getelementptr inbounds nuw %"class.testing::internal::MockSpec.126", ptr %2, i32 0, i32 0
  %10 = load ptr, ptr %9, align 8
  ret ptr %10
}

; Function Attrs: mustprogress uwtable
define internal void @_ZN12_GLOBAL__N_127LogSinkTest_FlushSinks_Test8TestBodyEv(ptr noundef nonnull align 8 dereferenceable(16) %0) unnamed_addr #9 align 2 personality ptr @__gxx_personality_v0 {
  %2 = alloca ptr, align 8
  %3 = alloca %"class.absl::ScopedMockLog", align 8
  %4 = alloca %"class.testing::internal::MockSpec.126", align 8
  %5 = alloca ptr, align 8
  %6 = alloca i32, align 4
  %7 = alloca %"class.testing::internal::WithoutMatchers", align 1
  store ptr %0, ptr %2, align 8, !tbaa !507
  call void @llvm.lifetime.start.p0(i64 240, ptr %3) #3
  call void @_ZN4absl13ScopedMockLogC1ENS_14MockLogDefaultE(ptr noundef nonnull align 8 dereferenceable(240) %3, i32 noundef 1)
  call void @llvm.lifetime.start.p0(i64 16, ptr %4) #3
  %8 = invoke ptr @_ZN4absl13ScopedMockLog11gmock_FlushEv(ptr noundef nonnull align 8 dereferenceable(240) %3)
          to label %9 unwind label %21

9:                                                ; preds = %1
  %10 = getelementptr inbounds nuw %"class.testing::internal::MockSpec.126", ptr %4, i32 0, i32 0
  store ptr %8, ptr %10, align 8
  call void @llvm.lifetime.start.p0(i64 1, ptr %7) #3
  invoke void @_ZN7testing8internal18GetWithoutMatchersEv()
          to label %11 unwind label %25

11:                                               ; preds = %9
  %12 = invoke noundef nonnull align 8 dereferenceable(9) ptr @_ZN7testing8internal8MockSpecIFvvEEclERKNS0_15WithoutMatchersEPv(ptr noundef nonnull align 8 dereferenceable(9) %4, ptr noundef nonnull align 1 dereferenceable(1) %7, ptr noundef null)
          to label %13 unwind label %25

13:                                               ; preds = %11
  %14 = invoke noundef nonnull align 8 dereferenceable(336) ptr @_ZN7testing8internal8MockSpecIFvvEE18InternalExpectedAtEPKciS5_S5_(ptr noundef nonnull align 8 dereferenceable(9) %12, ptr noundef @.str.4, i32 noundef 122, ptr noundef @.str.51, ptr noundef @.str.100)
          to label %15 unwind label %25

15:                                               ; preds = %13
  %16 = invoke noundef nonnull align 8 dereferenceable(336) ptr @_ZN7testing8internal16TypedExpectationIFvvEE5TimesEi(ptr noundef nonnull align 8 dereferenceable(336) %14, i32 noundef 2)
          to label %17 unwind label %25

17:                                               ; preds = %15
  call void @llvm.lifetime.end.p0(i64 1, ptr %7) #3
  call void @llvm.lifetime.end.p0(i64 16, ptr %4) #3
  invoke void @_ZN4absl13ScopedMockLog18StartCapturingLogsEv(ptr noundef nonnull align 8 dereferenceable(240) %3)
          to label %18 unwind label %30

18:                                               ; preds = %17
  invoke void @_ZN4absl13FlushLogSinksEv()
          to label %19 unwind label %30

19:                                               ; preds = %18
  invoke void @_ZN4absl13FlushLogSinksEv()
          to label %20 unwind label %30

20:                                               ; preds = %19
  call void @_ZN4absl13ScopedMockLogD1Ev(ptr noundef nonnull align 8 dereferenceable(240) %3) #3
  call void @llvm.lifetime.end.p0(i64 240, ptr %3) #3
  ret void

21:                                               ; preds = %1
  %22 = landingpad { ptr, i32 }
          cleanup
  %23 = extractvalue { ptr, i32 } %22, 0
  store ptr %23, ptr %5, align 8
  %24 = extractvalue { ptr, i32 } %22, 1
  store i32 %24, ptr %6, align 4
  br label %29

25:                                               ; preds = %15, %13, %11, %9
  %26 = landingpad { ptr, i32 }
          cleanup
  %27 = extractvalue { ptr, i32 } %26, 0
  store ptr %27, ptr %5, align 8
  %28 = extractvalue { ptr, i32 } %26, 1
  store i32 %28, ptr %6, align 4
  call void @llvm.lifetime.end.p0(i64 1, ptr %7) #3
  br label %29

29:                                               ; preds = %25, %21
  call void @llvm.lifetime.end.p0(i64 16, ptr %4) #3
  br label %34

30:                                               ; preds = %19, %18, %17
  %31 = landingpad { ptr, i32 }
          cleanup
  %32 = extractvalue { ptr, i32 } %31, 0
  store ptr %32, ptr %5, align 8
  %33 = extractvalue { ptr, i32 } %31, 1
  store i32 %33, ptr %6, align 4
  br label %34

34:                                               ; preds = %30, %29
  call void @_ZN4absl13ScopedMockLogD1Ev(ptr noundef nonnull align 8 dereferenceable(240) %3) #3
  call void @llvm.lifetime.end.p0(i64 240, ptr %3) #3
  br label %35

35:                                               ; preds = %34
  %36 = load ptr, ptr %5, align 8
  %37 = load i32, ptr %6, align 4
  %38 = insertvalue { ptr, i32 } poison, ptr %36, 0
  %39 = insertvalue { ptr, i32 } %38, i32 %37, 1
  resume { ptr, i32 } %39
}