; Function Attrs: mustprogress uwtable
define internal void @_ZN12_GLOBAL__N_127LogSinkTest_FlushSinks_Test8TestBodyEv(ptr nonnull readnone align 8 captures(none) %0) unnamed_addr #5 align 2 personality ptr @__gxx_personality_v0 {
  %2 = alloca %"class.testing::Cardinality", align 8
  %3 = alloca %"class.absl::ScopedMockLog", align 8
  %4 = alloca %"class.testing::internal::MockSpec.126", align 8
  call void @llvm.lifetime.start.p0(i64 240, ptr nonnull %3) #29
  call void @_ZN4absl13ScopedMockLogC1ENS_14MockLogDefaultE(ptr noundef nonnull align 8 dereferenceable(240) %3, i32 noundef 1)
  call void @llvm.lifetime.start.p0(i64 16, ptr nonnull %4) #29
  %5 = getelementptr inbounds nuw i8, ptr %3, i64 144
  invoke void @_ZN7testing8internal25UntypedFunctionMockerBase13RegisterOwnerEPKv(ptr noundef nonnull align 8 dereferenceable(72) %5, ptr noundef nonnull align 8 dereferenceable(240) %3)
          to label %_ZN4absl13ScopedMockLog11gmock_FlushEv.exit unwind label %36

_ZN4absl13ScopedMockLog11gmock_FlushEv.exit:      ; preds = %1
  store ptr %5, ptr %4, align 8
  invoke void @_ZN7testing8internal18GetWithoutMatchersEv()
          to label %6 unwind label %38

6:                                                ; preds = %_ZN4absl13ScopedMockLog11gmock_FlushEv.exit
  %7 = invoke noundef nonnull align 8 dereferenceable(336) ptr @_ZN7testing8internal8MockSpecIFvvEE18InternalExpectedAtEPKciS5_S5_(ptr noundef nonnull align 8 dereferenceable(9) %4, ptr noundef nonnull @.str.4, i32 noundef 122, ptr noundef nonnull @.str.51, ptr noundef nonnull @.str.100)
          to label %8 unwind label %38

8:                                                ; preds = %6
  call void @llvm.lifetime.start.p0(i64 16, ptr nonnull %2) #29
  invoke void @_ZN7testing7ExactlyEi(ptr dead_on_unwind nonnull writable sret(%"class.testing::Cardinality") align 8 %2, i32 noundef 2)
          to label %.noexc unwind label %38

.noexc:                                           ; preds = %8
  invoke void @_ZN7testing8internal15ExpectationBase12UntypedTimesERKNS_11CardinalityE(ptr noundef nonnull align 8 dereferenceable(336) %7, ptr noundef nonnull align 8 dereferenceable(16) %2)
          to label %_ZN7testing8internal16TypedExpectationIFvvEE5TimesERKNS_11CardinalityE.exit.i unwind label %32

_ZN7testing8internal16TypedExpectationIFvvEE5TimesERKNS_11CardinalityE.exit.i: ; preds = %.noexc
  %9 = getelementptr inbounds nuw i8, ptr %2, i64 8
  %10 = load ptr, ptr %9, align 8, !tbaa !27
  %.not.i.i.i.i = icmp eq ptr %10, null
  br i1 %.not.i.i.i.i, label %34, label %11

11:                                               ; preds = %_ZN7testing8internal16TypedExpectationIFvvEE5TimesERKNS_11CardinalityE.exit.i
  %12 = getelementptr inbounds nuw i8, ptr %10, i64 8
  %13 = load atomic i64, ptr %12 acquire, align 8
  %14 = icmp eq i64 %13, 4294967297
  %15 = trunc i64 %13 to i32
  br i1 %14, label %16, label %24

16:                                               ; preds = %11
  store i32 0, ptr %12, align 8, !tbaa !30
  %17 = getelementptr inbounds nuw i8, ptr %10, i64 12
  store i32 0, ptr %17, align 4, !tbaa !32
  %18 = load ptr, ptr %10, align 8, !tbaa !4
  %19 = getelementptr inbounds nuw i8, ptr %18, i64 16
  %20 = load ptr, ptr %19, align 8
  call void %20(ptr noundef nonnull align 8 dereferenceable(16) %10) #29
  %21 = load ptr, ptr %10, align 8, !tbaa !4
  %22 = getelementptr inbounds nuw i8, ptr %21, i64 24
  %23 = load ptr, ptr %22, align 8
  call void %23(ptr noundef nonnull align 8 dereferenceable(16) %10) #29
  br label %34

24:                                               ; preds = %11
  %25 = load i8, ptr @__libc_single_threaded, align 1, !tbaa !33
  %.not.i.i.i.i.i = icmp eq i8 %25, 0
  br i1 %.not.i.i.i.i.i, label %28, label %26

26:                                               ; preds = %24
  %27 = add nsw i32 %15, -1
  store i32 %27, ptr %12, align 4, !tbaa !34
  br label %_ZN9__gnu_cxx27__exchange_and_add_dispatchEPii.exit.i.i.i.i.i

28:                                               ; preds = %24
  %29 = atomicrmw volatile add ptr %12, i32 -1 acq_rel, align 4
  br label %_ZN9__gnu_cxx27__exchange_and_add_dispatchEPii.exit.i.i.i.i.i

_ZN9__gnu_cxx27__exchange_and_add_dispatchEPii.exit.i.i.i.i.i: ; preds = %28, %26
  %.0.i.i.i.i.i.i = phi i32 [ %15, %26 ], [ %29, %28 ]
  %30 = icmp eq i32 %.0.i.i.i.i.i.i, 1
  br i1 %30, label %31, label %34, !prof !35

31:                                               ; preds = %_ZN9__gnu_cxx27__exchange_and_add_dispatchEPii.exit.i.i.i.i.i
  call void @_ZNSt16_Sp_counted_baseILN9__gnu_cxx12_Lock_policyE2EE24_M_release_last_use_coldEv(ptr noundef nonnull align 8 dereferenceable(16) %10) #29
  br label %34

32:                                               ; preds = %.noexc
  %33 = landingpad { ptr, i32 }
          cleanup
  call void @_ZN7testing11CardinalityD2Ev(ptr noundef nonnull align 8 dereferenceable(16) %2) #29
  call void @llvm.lifetime.end.p0(i64 16, ptr nonnull %2) #29
  br label %.body

34:                                               ; preds = %31, %_ZN9__gnu_cxx27__exchange_and_add_dispatchEPii.exit.i.i.i.i.i, %16, %_ZN7testing8internal16TypedExpectationIFvvEE5TimesERKNS_11CardinalityE.exit.i
  call void @llvm.lifetime.end.p0(i64 16, ptr nonnull %2) #29
  call void @llvm.lifetime.end.p0(i64 16, ptr nonnull %4) #29
  invoke void @_ZN4absl13ScopedMockLog18StartCapturingLogsEv(ptr noundef nonnull align 8 dereferenceable(240) %3)
          to label %35 unwind label %40

35:                                               ; preds = %34
  invoke void @_ZN4absl12log_internal13FlushLogSinksEv()
          to label %_ZN4absl13FlushLogSinksEv.exit unwind label %40

_ZN4absl13FlushLogSinksEv.exit:                   ; preds = %35
  invoke void @_ZN4absl12log_internal13FlushLogSinksEv()
          to label %_ZN4absl13FlushLogSinksEv.exit8 unwind label %40

_ZN4absl13FlushLogSinksEv.exit8:                  ; preds = %_ZN4absl13FlushLogSinksEv.exit
  call void @_ZN4absl13ScopedMockLogD1Ev(ptr noundef nonnull align 8 dereferenceable(240) %3) #29
  call void @llvm.lifetime.end.p0(i64 240, ptr nonnull %3) #29
  ret void

36:                                               ; preds = %1
  %37 = landingpad { ptr, i32 }
          cleanup
  br label %.body

38:                                               ; preds = %8, %6, %_ZN4absl13ScopedMockLog11gmock_FlushEv.exit
  %39 = landingpad { ptr, i32 }
          cleanup
  br label %.body

.body:                                            ; preds = %38, %32, %36
  %.pn = phi { ptr, i32 } [ %37, %36 ], [ %39, %38 ], [ %33, %32 ]
  call void @llvm.lifetime.end.p0(i64 16, ptr nonnull %4) #29
  br label %42

40:                                               ; preds = %_ZN4absl13FlushLogSinksEv.exit, %35, %34
  %41 = landingpad { ptr, i32 }
          cleanup
  br label %42

42:                                               ; preds = %40, %.body
  %.pn4 = phi { ptr, i32 } [ %41, %40 ], [ %.pn, %.body ]
  call void @_ZN4absl13ScopedMockLogD1Ev(ptr noundef nonnull align 8 dereferenceable(240) %3) #29
  call void @llvm.lifetime.end.p0(i64 240, ptr nonnull %3) #29
  resume { ptr, i32 } %.pn4
}